; Function Attrs: mustprogress nofree norecurse nosync nounwind willreturn memory(argmem: readwrite) uwtable
define hidden void @_ZN19OpenColorIO_v2_5dev22ExposureContrastOpData12setDirectionENS_18TransformDirectionE(ptr noundef nonnull align 8 captures(none) dereferenceable(248) %0, i32 noundef %1) local_unnamed_addr #9 align 2 {
  %3 = getelementptr inbounds nuw i8, ptr %0, i64 168
  %4 = load i32, ptr %3, align 8, !tbaa !15
  %switch.tableidx = add i32 %4, -1
  %5 = icmp ult i32 %switch.tableidx, 5
  br i1 %5, label %switch.lookup, label %_ZNK19OpenColorIO_v2_5dev22ExposureContrastOpData12getDirectionEv.exit

switch.lookup:                                    ; preds = %2
  %6 = zext nneg i32 %switch.tableidx to i64
  %switch.gep = getelementptr inbounds nuw [5 x i32], ptr @switch.table._ZN19OpenColorIO_v2_5dev22ExposureContrastOpData12setDirectionENS_18TransformDirectionE, i64 0, i64 %6
  %switch.load = load i32, ptr %switch.gep, align 4
  br label %_ZNK19OpenColorIO_v2_5dev22ExposureContrastOpData12getDirectionEv.exit

_ZNK19OpenColorIO_v2_5dev22ExposureContrastOpData12getDirectionEv.exit: ; preds = %2, %switch.lookup
  %.0.i = phi i32 [ %switch.load, %switch.lookup ], [ 0, %2 ]
  %.not = icmp eq i32 %.0.i, %1
  br i1 %.not, label %10, label %7

7:                                                ; preds = %_ZNK19OpenColorIO_v2_5dev22ExposureContrastOpData12getDirectionEv.exit
  %8 = icmp ult i32 %4, 6
  br i1 %8, label %switch.lookup2, label %_ZN19OpenColorIO_v2_5dev22ExposureContrastOpData6invertEv.exit

switch.lookup2:                                   ; preds = %7
  %9 = zext nneg i32 %4 to i64
  %switch.gep3 = getelementptr inbounds nuw [6 x i32], ptr @switch.table._ZN19OpenColorIO_v2_5dev22ExposureContrastOpData12setDirectionENS_18TransformDirectionE.1, i64 0, i64 %9
  %switch.load4 = load i32, ptr %switch.gep3, align 4
  br label %_ZN19OpenColorIO_v2_5dev22ExposureContrastOpData6invertEv.exit

_ZN19OpenColorIO_v2_5dev22ExposureContrastOpData6invertEv.exit: ; preds = %switch.lookup2, %7
  %.0.i1 = phi i32 [ 0, %7 ], [ %switch.load4, %switch.lookup2 ]
  store i32 %.0.i1, ptr %3, align 8, !tbaa !15
  br label %10

10:                                               ; preds = %_ZN19OpenColorIO_v2_5dev22ExposureContrastOpData6invertEv.exit, %_ZNK19OpenColorIO_v2_5dev22ExposureContrastOpData12getDirectionEv.exit
  ret void
}